; Function Attrs: mustprogress sspstrong uwtable
define noundef zeroext i1 @_ZN4FLAC8Metadata8get_tagsEPKcRNS0_13VorbisCommentE(ptr noundef %filename, ptr noundef nonnull align 8 dereferenceable(17) %tags) local_unnamed_addr #0 {
entry:
  %object = alloca ptr, align 8
  %call = call i32 @FLAC__metadata_get_tags(ptr noundef %filename, ptr noundef nonnull %object)
  %tobool.not = icmp ne i32 %call, 0
  br i1 %tobool.not, label %if.then, label %return

if.then:                                          ; preds = %entry
  %0 = load ptr, ptr %object, align 8
  %vtable.i.i = load ptr, ptr %tags, align 8
  %1 = load ptr, ptr %vtable.i.i, align 8
  call void %1(ptr noundef nonnull align 8 dereferenceable(17) %tags)
  %object_.i.i = getelementptr inbounds i8, ptr %tags, i64 8
  store ptr %0, ptr %object_.i.i, align 8
  %is_reference_.i.i = getelementptr inbounds i8, ptr %tags, i64 16
  store i8 0, ptr %is_reference_.i.i, align 8
  br label %return

return:                                           ; preds = %entry, %if.then
  ret i1 %tobool.not
}